; Function Attrs: mustprogress nounwind uwtable
define internal void @"_ZNSt17_Function_handlerIFvPN4node11EnvironmentENS0_8ExitCodeEEZNS0_21SetProcessExitHandlerES2_OSt8functionIFvS2_iEEE3$_0E9_M_invokeERKSt9_Any_dataOS2_OS3_"(ptr nocapture noundef nonnull readonly align 8 dereferenceable(16) %__functor, ptr nocapture noundef nonnull readonly align 8 dereferenceable(8) %__args, ptr nocapture noundef nonnull readonly align 4 dereferenceable(4) %__args1) #3 align 2 {
entry:
  %__args.addr.i.i.i.i = alloca ptr, align 8
  %__args.addr2.i.i.i.i = alloca i32, align 4
  %__functor.val = load ptr, ptr %__functor, align 8
  %__args.val = load ptr, ptr %__args, align 8
  %__args1.val = load i32, ptr %__args1, align 4
  call void @llvm.lifetime.start.p0(i64 8, ptr nonnull %__args.addr.i.i.i.i)
  call void @llvm.lifetime.start.p0(i64 4, ptr nonnull %__args.addr2.i.i.i.i)
  store ptr %__args.val, ptr %__args.addr.i.i.i.i, align 8
  store i32 %__args1.val, ptr %__args.addr2.i.i.i.i, align 4
  %_M_manager.i.i.i.i.i = getelementptr inbounds i8, ptr %__functor.val, i64 16
  %0 = load ptr, ptr %_M_manager.i.i.i.i.i, align 8
  %tobool.not.i.i.i.i.i = icmp eq ptr %0, null
  br i1 %tobool.not.i.i.i.i.i, label %if.then.i.i.i.i, label %"_ZSt10__invoke_rIvRZN4node21SetProcessExitHandlerEPNS0_11EnvironmentEOSt8functionIFvS2_iEEE3$_0JS2_NS0_8ExitCodeEEENSt9enable_ifIX16is_invocable_r_vIT_T0_DpT1_EESB_E4typeEOSC_DpOSD_.exit"

if.then.i.i.i.i:                                  ; preds = %entry
  tail call void @_ZSt25__throw_bad_function_callv() #20
  unreachable

"_ZSt10__invoke_rIvRZN4node21SetProcessExitHandlerEPNS0_11EnvironmentEOSt8functionIFvS2_iEEE3$_0JS2_NS0_8ExitCodeEEENSt9enable_ifIX16is_invocable_r_vIT_T0_DpT1_EESB_E4typeEOSC_DpOSD_.exit": ; preds = %entry
  %_M_invoker.i.i.i.i = getelementptr inbounds i8, ptr %__functor.val, i64 24
  %1 = load ptr, ptr %_M_invoker.i.i.i.i, align 8
  call void %1(ptr noundef nonnull align 8 dereferenceable(16) %__functor.val, ptr noundef nonnull align 8 dereferenceable(8) %__args.addr.i.i.i.i, ptr noundef nonnull align 4 dereferenceable(4) %__args.addr2.i.i.i.i) #12
  call void @llvm.lifetime.end.p0(i64 8, ptr nonnull %__args.addr.i.i.i.i)
  call void @llvm.lifetime.end.p0(i64 4, ptr nonnull %__args.addr2.i.i.i.i)
  ret void
}